; ModuleID = '58/314.cpp'
source_filename = "58/314.cpp"
target datalayout = "e-m:e-p270:32:32-p271:32:32-p272:64:64-i64:64-f80:128-n8:16:32:64-S128"
target triple = "x86_64-pc-linux-gnu"

%"class.std::ios_base::Init" = type { i8 }
%"class.std::basic_istream" = type { i32 (...)**, i64, %"class.std::basic_ios" }
%"class.std::basic_ios" = type { %"class.std::ios_base", %"class.std::basic_ostream"*, i8, i8, %"class.std::basic_streambuf"*, %"class.std::ctype"*, %"class.std::num_put"*, %"class.std::num_get"* }
%"class.std::ios_base" = type { i32 (...)**, i64, i64, i32, i32, i32, %"struct.std::ios_base::_Callback_list"*, %"struct.std::ios_base::_Words", [8 x %"struct.std::ios_base::_Words"], i32, %"struct.std::ios_base::_Words"*, %"class.std::locale" }
%"struct.std::ios_base::_Callback_list" = type { %"struct.std::ios_base::_Callback_list"*, void (i32, %"class.std::ios_base"*, i32)*, i32, i32 }
%"struct.std::ios_base::_Words" = type { i8*, i64 }
%"class.std::locale" = type { %"class.std::locale::_Impl"* }
%"class.std::locale::_Impl" = type { i32, %"class.std::locale::facet"**, i64, %"class.std::locale::facet"**, i8** }
%"class.std::locale::facet" = type <{ i32 (...)**, i32, [4 x i8] }>
%"class.std::basic_ostream" = type { i32 (...)**, %"class.std::basic_ios" }
%"class.std::basic_streambuf" = type { i32 (...)**, i8*, i8*, i8*, i8*, i8*, i8*, %"class.std::locale" }
%"class.std::ctype" = type <{ %"class.std::locale::facet.base", [4 x i8], %struct.__locale_struct*, i8, [7 x i8], i32*, i32*, i16*, i8, [256 x i8], [256 x i8], i8, [6 x i8] }>
%"class.std::locale::facet.base" = type <{ i32 (...)**, i32 }>
%struct.__locale_struct = type { [13 x %struct.__locale_data*], i16*, i32*, i32*, [13 x i8*] }
%struct.__locale_data = type opaque
%"class.std::num_put" = type { %"class.std::locale::facet.base", [4 x i8] }
%"class.std::num_get" = type { %"class.std::locale::facet.base", [4 x i8] }

@_ZStL8__ioinit = internal global %"class.std::ios_base::Init" zeroinitializer, align 1
@__dso_handle = external hidden global i8
@_ZSt3cin = external dso_local global %"class.std::basic_istream", align 8
@_ZSt4cout = external dso_local global %"class.std::basic_ostream", align 8
@llvm.global_ctors = appending global [1 x { i32, void ()*, i8* }] [{ i32, void ()*, i8* } { i32 65535, void ()* @_GLOBAL__sub_I_314.cpp, i8* null }]

; Function Attrs: noinline uwtable
define internal void @__cxx_global_var_init() #0 section ".text.startup" {
  call void @_ZNSt8ios_base4InitC1Ev(%"class.std::ios_base::Init"* @_ZStL8__ioinit)
  %1 = call i32 @__cxa_atexit(void (i8*)* bitcast (void (%"class.std::ios_base::Init"*)* @_ZNSt8ios_base4InitD1Ev to void (i8*)*), i8* getelementptr inbounds (%"class.std::ios_base::Init", %"class.std::ios_base::Init"* @_ZStL8__ioinit, i32 0, i32 0), i8* @__dso_handle) #3
  ret void
}

declare dso_local void @_ZNSt8ios_base4InitC1Ev(%"class.std::ios_base::Init"*) unnamed_addr #1

; Function Attrs: nounwind
declare dso_local void @_ZNSt8ios_base4InitD1Ev(%"class.std::ios_base::Init"*) unnamed_addr #2

; Function Attrs: nounwind
declare dso_local i32 @__cxa_atexit(void (i8*)*, i8*, i8*) #3

; Function Attrs: noinline norecurse uwtable
define dso_local i32 @main() #4 {
  %1 = alloca i32, align 4
  %2 = alloca [81 x i8], align 16
  %3 = alloca i32, align 4
  %4 = alloca i32, align 4
  %5 = alloca i32, align 4
  %6 = alloca i32, align 4
  %7 = alloca [100 x i32], align 16
  store i32 0, i32* %1, align 4
  %8 = call dereferenceable(280) %"class.std::basic_istream"* @_ZNSirsERi(%"class.std::basic_istream"* @_ZSt3cin, i32* dereferenceable(4) %4)
  %9 = call i32 @getchar()
  store i32 1, i32* %5, align 4
  br label %10

10:                                               ; preds = %131, %0
  %11 = load i32, i32* %5, align 4
  %12 = load i32, i32* %4, align 4
  %13 = icmp sle i32 %11, %12
  br i1 %13, label %14, label %134

14:                                               ; preds = %10
  %15 = load i32, i32* %5, align 4
  %16 = sext i32 %15 to i64
  %17 = getelementptr inbounds [100 x i32], [100 x i32]* %7, i64 0, i64 %16
  store i32 1, i32* %17, align 4
  %18 = getelementptr inbounds [81 x i8], [81 x i8]* %2, i64 0, i64 0
  %19 = call dereferenceable(280) %"class.std::basic_istream"* @_ZNSi7getlineEPclc(%"class.std::basic_istream"* @_ZSt3cin, i8* %18, i64 81, i8 signext 10)
  store i32 0, i32* %3, align 4
  br label %20

20:                                               ; preds = %28, %14
  %21 = load i32, i32* %3, align 4
  %22 = sext i32 %21 to i64
  %23 = getelementptr inbounds [81 x i8], [81 x i8]* %2, i64 0, i64 %22
  %24 = load i8, i8* %23, align 1
  %25 = sext i8 %24 to i32
  %26 = icmp ne i32 %25, 0
  br i1 %26, label %27, label %31

27:                                               ; preds = %20
  br label %28

28:                                               ; preds = %27
  %29 = load i32, i32* %3, align 4
  %30 = add nsw i32 %29, 1
  store i32 %30, i32* %3, align 4
  br label %20

31:                                               ; preds = %20
  %32 = getelementptr inbounds [81 x i8], [81 x i8]* %2, i64 0, i64 0
  %33 = load i8, i8* %32, align 16
  %34 = sext i8 %33 to i32
  %35 = icmp sge i32 %34, 65
  br i1 %35, label %36, label %41

36:                                               ; preds = %31
  %37 = getelementptr inbounds [81 x i8], [81 x i8]* %2, i64 0, i64 0
  %38 = load i8, i8* %37, align 16
  %39 = sext i8 %38 to i32
  %40 = icmp sle i32 %39, 90
  br i1 %40, label %56, label %41

41:                                               ; preds = %36, %31
  %42 = getelementptr inbounds [81 x i8], [81 x i8]* %2, i64 0, i64 0
  %43 = load i8, i8* %42, align 16
  %44 = sext i8 %43 to i32
  %45 = icmp sge i32 %44, 97
  br i1 %45, label %46, label %51

46:                                               ; preds = %41
  %47 = getelementptr inbounds [81 x i8], [81 x i8]* %2, i64 0, i64 0
  %48 = load i8, i8* %47, align 16
  %49 = sext i8 %48 to i32
  %50 = icmp sle i32 %49, 122
  br i1 %50, label %56, label %51

51:                                               ; preds = %46, %41
  %52 = getelementptr inbounds [81 x i8], [81 x i8]* %2, i64 0, i64 0
  %53 = load i8, i8* %52, align 16
  %54 = sext i8 %53 to i32
  %55 = icmp eq i32 %54, 95
  br i1 %55, label %56, label %126

56:                                               ; preds = %51, %46, %36
  store i32 1, i32* %6, align 4
  br label %57

57:                                               ; preds = %122, %56
  %58 = load i32, i32* %6, align 4
  %59 = load i32, i32* %3, align 4
  %60 = sub nsw i32 %59, 1
  %61 = icmp sle i32 %58, %60
  br i1 %61, label %62, label %125

62:                                               ; preds = %57
  %63 = load i32, i32* %6, align 4
  %64 = sext i32 %63 to i64
  %65 = getelementptr inbounds [81 x i8], [81 x i8]* %2, i64 0, i64 %64
  %66 = load i8, i8* %65, align 1
  %67 = sext i8 %66 to i32
  %68 = icmp slt i32 %67, 48
  br i1 %68, label %110, label %69

69:                                               ; preds = %62
  %70 = load i32, i32* %6, align 4
  %71 = sext i32 %70 to i64
  %72 = getelementptr inbounds [81 x i8], [81 x i8]* %2, i64 0, i64 %71
  %73 = load i8, i8* %72, align 1
  %74 = sext i8 %73 to i32
  %75 = icmp sgt i32 %74, 57
  br i1 %75, label %76, label %83

76:                                               ; preds = %69
  %77 = load i32, i32* %6, align 4
  %78 = sext i32 %77 to i64
  %79 = getelementptr inbounds [81 x i8], [81 x i8]* %2, i64 0, i64 %78
  %80 = load i8, i8* %79, align 1
  %81 = sext i8 %80 to i32
  %82 = icmp slt i32 %81, 65
  br i1 %82, label %110, label %83

83:                                               ; preds = %76, %69
  %84 = load i32, i32* %6, align 4
  %85 = sext i32 %84 to i64
  %86 = getelementptr inbounds [81 x i8], [81 x i8]* %2, i64 0, i64 %85
  %87 = load i8, i8* %86, align 1
  %88 = sext i8 %87 to i32
  %89 = icmp sgt i32 %88, 90
  br i1 %89, label %90, label %97

90:                                               ; preds = %83
  %91 = load i32, i32* %6, align 4
  %92 = sext i32 %91 to i64
  %93 = getelementptr inbounds [81 x i8], [81 x i8]* %2, i64 0, i64 %92
  %94 = load i8, i8* %93, align 1
  %95 = sext i8 %94 to i32
  %96 = icmp slt i32 %95, 97
  br i1 %96, label %110, label %97

97:                                               ; preds = %90, %83
  %98 = load i32, i32* %6, align 4
  %99 = sext i32 %98 to i64
  %100 = getelementptr inbounds [81 x i8], [81 x i8]* %2, i64 0, i64 %99
  %101 = load i8, i8* %100, align 1
  %102 = sext i8 %101 to i32
  %103 = icmp sgt i32 %102, 122
  br i1 %103, label %104, label %121

104:                                              ; preds = %97
  %105 = load i32, i32* %6, align 4
  %106 = sext i32 %105 to i64
  %107 = getelementptr inbounds [81 x i8], [81 x i8]* %2, i64 0, i64 %106
  %108 = load i8, i8* %107, align 1
  %109 = icmp ne i8 %108, 0
  br i1 %109, label %110, label %121

110:                                              ; preds = %104, %90, %76, %62
  %111 = load i32, i32* %6, align 4
  %112 = sext i32 %111 to i64
  %113 = getelementptr inbounds [81 x i8], [81 x i8]* %2, i64 0, i64 %112
  %114 = load i8, i8* %113, align 1
  %115 = sext i8 %114 to i32
  %116 = icmp ne i32 %115, 95
  br i1 %116, label %117, label %121

117:                                              ; preds = %110
  %118 = load i32, i32* %5, align 4
  %119 = sext i32 %118 to i64
  %120 = getelementptr inbounds [100 x i32], [100 x i32]* %7, i64 0, i64 %119
  store i32 0, i32* %120, align 4
  br label %125

121:                                              ; preds = %110, %104, %97
  br label %122

122:                                              ; preds = %121
  %123 = load i32, i32* %6, align 4
  %124 = add nsw i32 %123, 1
  store i32 %124, i32* %6, align 4
  br label %57

125:                                              ; preds = %117, %57
  br label %130

126:                                              ; preds = %51
  %127 = load i32, i32* %5, align 4
  %128 = sext i32 %127 to i64
  %129 = getelementptr inbounds [100 x i32], [100 x i32]* %7, i64 0, i64 %128
  store i32 0, i32* %129, align 4
  br label %130

130:                                              ; preds = %126, %125
  br label %131

131:                                              ; preds = %130
  %132 = load i32, i32* %5, align 4
  %133 = add nsw i32 %132, 1
  store i32 %133, i32* %5, align 4
  br label %10

134:                                              ; preds = %10
  store i32 1, i32* %5, align 4
  br label %135

135:                                              ; preds = %146, %134
  %136 = load i32, i32* %5, align 4
  %137 = load i32, i32* %4, align 4
  %138 = icmp sle i32 %136, %137
  br i1 %138, label %139, label %149

139:                                              ; preds = %135
  %140 = load i32, i32* %5, align 4
  %141 = sext i32 %140 to i64
  %142 = getelementptr inbounds [100 x i32], [100 x i32]* %7, i64 0, i64 %141
  %143 = load i32, i32* %142, align 4
  %144 = call dereferenceable(272) %"class.std::basic_ostream"* @_ZNSolsEi(%"class.std::basic_ostream"* @_ZSt4cout, i32 %143)
  %145 = call dereferenceable(272) %"class.std::basic_ostream"* @_ZNSolsEPFRSoS_E(%"class.std::basic_ostream"* %144, %"class.std::basic_ostream"* (%"class.std::basic_ostream"*)* @_ZSt4endlIcSt11char_traitsIcEERSt13basic_ostreamIT_T0_ES6_)
  br label %146

146:                                              ; preds = %139
  %147 = load i32, i32* %5, align 4
  %148 = add nsw i32 %147, 1
  store i32 %148, i32* %5, align 4
  br label %135

149:                                              ; preds = %135
  ret i32 0
}

declare dso_local dereferenceable(280) %"class.std::basic_istream"* @_ZNSirsERi(%"class.std::basic_istream"*, i32* dereferenceable(4)) #1

declare dso_local i32 @getchar() #1

declare dso_local dereferenceable(280) %"class.std::basic_istream"* @_ZNSi7getlineEPclc(%"class.std::basic_istream"*, i8*, i64, i8 signext) #1

declare dso_local dereferenceable(272) %"class.std::basic_ostream"* @_ZNSolsEi(%"class.std::basic_ostream"*, i32) #1

declare dso_local dereferenceable(272) %"class.std::basic_ostream"* @_ZNSolsEPFRSoS_E(%"class.std::basic_ostream"*, %"class.std::basic_ostream"* (%"class.std::basic_ostream"*)*) #1

declare dso_local dereferenceable(272) %"class.std::basic_ostream"* @_ZSt4endlIcSt11char_traitsIcEERSt13basic_ostreamIT_T0_ES6_(%"class.std::basic_ostream"* dereferenceable(272)) #1

; Function Attrs: noinline uwtable
define internal void @_GLOBAL__sub_I_314.cpp() #0 section ".text.startup" {
  call void @__cxx_global_var_init()
  ret void
}


!llvm.module.flags = !{!0}
!llvm.ident = !{!1}

!0 = !{i32 1, !"wchar_size", i32 4}
!1 = !{!"clang version 10.0.0-4ubuntu1 "}
